; Function Attrs: mustprogress uwtable
define noundef zeroext i1 @_ZNK6google8protobuf10TextFormat7Printer13PrintToStringERKNS0_7MessageEPNSt7__cxx1112basic_stringIcSt11char_traitsIcESaIcEEE(ptr noundef nonnull align 8 dereferenceable(112) %this, ptr noundef nonnull align 8 dereferenceable(16) %message, ptr noundef nonnull %output) local_unnamed_addr #4 align 2 personality ptr @__gxx_personality_v0 {
entry:
  %generator.i = alloca %"class.google::protobuf::TextFormat::Printer::TextGenerator", align 8
  %output_stream = alloca %"class.google::protobuf::io::StringOutputStream", align 8
  tail call void @_ZNSt7__cxx1112basic_stringIcSt11char_traitsIcESaIcEE5clearEv(ptr noundef nonnull align 8 dereferenceable(32) %output) #34
  call void @_ZN6google8protobuf2io18StringOutputStreamC1EPNSt7__cxx1112basic_stringIcSt11char_traitsIcESaIcEEE(ptr noundef nonnull align 8 dereferenceable(16) %output_stream, ptr noundef nonnull %output)
  call void @llvm.lifetime.start.p0(i64 40, ptr nonnull %generator.i)
  %insert_silent_marker_.i = getelementptr inbounds i8, ptr %this, i64 7
  %0 = load i8, ptr %insert_silent_marker_.i, align 1
  %1 = and i8 %0, 1
  %2 = load i32, ptr %this, align 8
  store ptr getelementptr inbounds ({ [10 x ptr] }, ptr @_ZTVN6google8protobuf10TextFormat7Printer13TextGeneratorE, i64 0, i32 0, i64 2), ptr %generator.i, align 8
  %output_.i.i = getelementptr inbounds i8, ptr %generator.i, i64 8
  store ptr %output_stream, ptr %output_.i.i, align 8
  %buffer_.i.i = getelementptr inbounds i8, ptr %generator.i, i64 16
  store ptr null, ptr %buffer_.i.i, align 8
  %buffer_size_.i.i = getelementptr inbounds i8, ptr %generator.i, i64 24
  store i32 0, ptr %buffer_size_.i.i, align 8
  %at_start_of_line_.i.i = getelementptr inbounds i8, ptr %generator.i, i64 28
  store i8 1, ptr %at_start_of_line_.i.i, align 4
  %failed_.i.i = getelementptr inbounds i8, ptr %generator.i, i64 29
  store i8 0, ptr %failed_.i.i, align 1
  %insert_silent_marker_.i.i = getelementptr inbounds i8, ptr %generator.i, i64 30
  store i8 %1, ptr %insert_silent_marker_.i.i, align 2
  %indent_level_.i.i = getelementptr inbounds i8, ptr %generator.i, i64 32
  store i32 %2, ptr %indent_level_.i.i, align 8
  %initial_indent_level_.i.i = getelementptr inbounds i8, ptr %generator.i, i64 36
  store i32 %2, ptr %initial_indent_level_.i.i, align 4
  invoke void @_ZNK6google8protobuf10TextFormat7Printer5PrintERKNS0_7MessageEPNS1_17BaseTextGeneratorE(ptr noundef nonnull align 8 dereferenceable(112) %this, ptr noundef nonnull align 8 dereferenceable(16) %message, ptr noundef nonnull %generator.i)
          to label %invoke.cont.i unwind label %lpad.i

invoke.cont.i:                                    ; preds = %entry
  %3 = load i8, ptr %failed_.i.i, align 1
  %4 = and i8 %3, 1
  store ptr getelementptr inbounds ({ [10 x ptr] }, ptr @_ZTVN6google8protobuf10TextFormat7Printer13TextGeneratorE, i64 0, i32 0, i64 2), ptr %generator.i, align 8
  %tobool.not.i.i = icmp eq i8 %4, 0
  br i1 %tobool.not.i.i, label %if.then.i.i, label %invoke.cont

if.then.i.i:                                      ; preds = %invoke.cont.i
  %5 = load ptr, ptr %output_.i.i, align 8
  %6 = load i32, ptr %buffer_size_.i.i, align 8
  %vtable.i.i = load ptr, ptr %5, align 8
  %vfn.i.i = getelementptr inbounds i8, ptr %vtable.i.i, i64 24
  %7 = load ptr, ptr %vfn.i.i, align 8
  invoke void %7(ptr noundef nonnull align 8 dereferenceable(8) %5, i32 noundef %6)
          to label %invoke.cont unwind label %terminate.lpad.i.i

terminate.lpad.i.i:                               ; preds = %if.then.i.i
  %8 = landingpad { ptr, i32 }
          catch ptr null
  %9 = extractvalue { ptr, i32 } %8, 0
  call void @__clang_call_terminate(ptr %9) #36
  unreachable

lpad.i:                                           ; preds = %entry
  %10 = landingpad { ptr, i32 }
          cleanup
  call void @_ZN6google8protobuf10TextFormat7Printer13TextGeneratorD2Ev(ptr noundef nonnull align 8 dereferenceable(40) %generator.i) #34
  resume { ptr, i32 } %10

invoke.cont:                                      ; preds = %if.then.i.i, %invoke.cont.i
  call void @llvm.lifetime.end.p0(i64 40, ptr nonnull %generator.i)
  ret i1 %tobool.not.i.i
}